target datalayout = "e-m:e-p270:32:32-p271:32:32-p272:64:64-i64:64-i128:128-f80:128-n8:16:32:64-S128"
target triple = "x86_64-pc-linux-gnu"

%struct.XLogCtlData = type { %struct.XLogCtlInsert, %struct.XLogwrtRqst, i64, %struct.FullTransactionId, i64, i64, i64, %struct.pg_atomic_uint64, i64, i64, %struct.pg_atomic_uint64, %struct.pg_atomic_uint64, %struct.pg_atomic_uint64, i64, ptr, ptr, i32, i32, i32, i32, i8, i8, i64, i64, %struct.CheckPoint, i64, i8 }
%struct.XLogCtlInsert = type { i8, i64, i64, [128 x i8], i64, i8, i32, i64, ptr }
%struct.XLogwrtRqst = type { i64, i64 }
%struct.FullTransactionId = type { i64 }
%struct.pg_atomic_uint64 = type { i64 }
%struct.CheckPoint = type { i64, i32, i32, i8, i32, %struct.FullTransactionId, i32, i32, i32, i32, i32, i32, i32, i64, i32, i32, i32 }

@XLogCtl = internal global ptr null, align 8
@LocalRecoveryInProgress = internal global i8 1, align 1

; Function Attrs: nounwind uwtable
define dso_local zeroext i1 @RecoveryInProgress() #0 {
  %1 = alloca i1, align 1
  %2 = alloca ptr, align 8
  %3 = load i8, ptr @LocalRecoveryInProgress, align 1, !range !4, !noundef !5
  %4 = trunc i8 %3 to i1
  br i1 %4, label %6, label %5

5:                                                ; preds = %0
  store i1 false, ptr %1, align 1
  br label %15

6:                                                ; preds = %0
  call void @llvm.lifetime.start.p0(i64 8, ptr %2) #16
  %7 = load ptr, ptr @XLogCtl, align 8
  store ptr %7, ptr %2, align 8
  %8 = load ptr, ptr %2, align 8
  %9 = getelementptr inbounds nuw %struct.XLogCtlData, ptr %8, i32 0, i32 19
  %10 = load volatile i32, ptr %9, align 4
  %11 = icmp ne i32 %10, 2
  %12 = zext i1 %11 to i8
  store i8 %12, ptr @LocalRecoveryInProgress, align 1
  %13 = load i8, ptr @LocalRecoveryInProgress, align 1, !range !4, !noundef !5
  %14 = trunc i8 %13 to i1
  store i1 %14, ptr %1, align 1
  call void @llvm.lifetime.end.p0(i64 8, ptr %2) #16
  br label %15

15:                                               ; preds = %6, %5
  %16 = load i1, ptr %1, align 1
  ret i1 %16
}