; Function Attrs: mustprogress nofree norecurse nounwind willreturn uwtable
define dso_local zeroext i1 @RecoveryInProgress() local_unnamed_addr #2 {
  %1 = load i8, ptr @LocalRecoveryInProgress, align 1, !range !4, !noundef !5
  %2 = trunc nuw i8 %1 to i1
  br i1 %2, label %3, label %9

3:                                                ; preds = %0
  %4 = load ptr, ptr @XLogCtl, align 8
  %5 = getelementptr inbounds nuw i8, ptr %4, i64 324
  %6 = load volatile i32, ptr %5, align 4
  %7 = icmp ne i32 %6, 2
  %8 = zext i1 %7 to i8
  store i8 %8, ptr @LocalRecoveryInProgress, align 1
  br label %9

9:                                                ; preds = %0, %3
  %.0 = phi i1 [ %7, %3 ], [ false, %0 ]
  ret i1 %.0
}